target datalayout = "e-m:e-p270:32:32-p271:32:32-p272:64:64-i64:64-i128:128-f80:128-n8:16:32:64-S128"
target triple = "x86_64-pc-linux-gnu"

; Function Attrs: nounwind uwtable
define internal i32 @hash_choose_num_partitions(double noundef %0, double noundef %1, i32 noundef %2, ptr noundef %3) #0 {
  %5 = alloca double, align 8
  %6 = alloca double, align 8
  %7 = alloca i32, align 4
  %8 = alloca ptr, align 8
  %9 = alloca i64, align 8
  %10 = alloca double, align 8
  %11 = alloca double, align 8
  %12 = alloca double, align 8
  %13 = alloca i32, align 4
  %14 = alloca i32, align 4
  store double %0, ptr %5, align 8
  store double %1, ptr %6, align 8
  store i32 %2, ptr %7, align 4
  store ptr %3, ptr %8, align 8
  call void @llvm.lifetime.start.p0(i64 8, ptr %9) #9
  %15 = call i64 @get_hash_memory_limit()
  store i64 %15, ptr %9, align 8
  call void @llvm.lifetime.start.p0(i64 8, ptr %10) #9
  call void @llvm.lifetime.start.p0(i64 8, ptr %11) #9
  call void @llvm.lifetime.start.p0(i64 8, ptr %12) #9
  call void @llvm.lifetime.start.p0(i64 4, ptr %13) #9
  call void @llvm.lifetime.start.p0(i64 4, ptr %14) #9
  %16 = load i64, ptr %9, align 8
  %17 = uitofp i64 %16 to double
  %18 = call double @llvm.fmuladd.f64(double %17, double 2.500000e-01, double -8.192000e+03)
  %19 = fdiv double %18, 8.192000e+03
  store double %19, ptr %10, align 8
  %20 = load double, ptr %5, align 8
  %21 = fmul double 1.500000e+00, %20
  %22 = load double, ptr %6, align 8
  %23 = fmul double %21, %22
  store double %23, ptr %11, align 8
  %24 = load double, ptr %11, align 8
  %25 = load i64, ptr %9, align 8
  %26 = uitofp i64 %25 to double
  %27 = fdiv double %24, %26
  %28 = fadd double 1.000000e+00, %27
  store double %28, ptr %12, align 8
  %29 = load double, ptr %12, align 8
  %30 = load double, ptr %10, align 8
  %31 = fcmp ogt double %29, %30
  br i1 %31, label %32, label %34

32:                                               ; preds = %4
  %33 = load double, ptr %10, align 8
  store double %33, ptr %12, align 8
  br label %34

34:                                               ; preds = %32, %4
  %35 = load double, ptr %12, align 8
  %36 = fcmp olt double %35, 4.000000e+00
  br i1 %36, label %37, label %38

37:                                               ; preds = %34
  store double 4.000000e+00, ptr %12, align 8
  br label %38

38:                                               ; preds = %37, %34
  %39 = load double, ptr %12, align 8
  %40 = fcmp ogt double %39, 1.024000e+03
  br i1 %40, label %41, label %42

41:                                               ; preds = %38
  store double 1.024000e+03, ptr %12, align 8
  br label %42

42:                                               ; preds = %41, %38
  %43 = load double, ptr %12, align 8
  %44 = fptosi double %43 to i32
  store i32 %44, ptr %13, align 4
  %45 = load i32, ptr %13, align 4
  %46 = sext i32 %45 to i64
  %47 = call i32 @my_log2(i64 noundef %46)
  store i32 %47, ptr %14, align 4
  %48 = load i32, ptr %14, align 4
  %49 = load i32, ptr %7, align 4
  %50 = add i32 %48, %49
  %51 = icmp sge i32 %50, 32
  br i1 %51, label %52, label %55

52:                                               ; preds = %42
  %53 = load i32, ptr %7, align 4
  %54 = sub i32 32, %53
  store i32 %54, ptr %14, align 4
  br label %55

55:                                               ; preds = %52, %42
  %56 = load ptr, ptr %8, align 8
  %57 = icmp ne ptr %56, null
  br i1 %57, label %58, label %61

58:                                               ; preds = %55
  %59 = load i32, ptr %14, align 4
  %60 = load ptr, ptr %8, align 8
  store i32 %59, ptr %60, align 4
  br label %61

61:                                               ; preds = %58, %55
  %62 = load i32, ptr %14, align 4
  %63 = shl i32 1, %62
  store i32 %63, ptr %13, align 4
  %64 = load i32, ptr %13, align 4
  call void @llvm.lifetime.end.p0(i64 4, ptr %14) #9
  call void @llvm.lifetime.end.p0(i64 4, ptr %13) #9
  call void @llvm.lifetime.end.p0(i64 8, ptr %12) #9
  call void @llvm.lifetime.end.p0(i64 8, ptr %11) #9
  call void @llvm.lifetime.end.p0(i64 8, ptr %10) #9
  call void @llvm.lifetime.end.p0(i64 8, ptr %9) #9
  ret i32 %64
}

; Function Attrs: nounwind uwtable
define dso_local void @hash_agg_set_limits(double noundef %0, double noundef %1, i32 noundef %2, ptr noundef %3, ptr noundef %4, ptr noundef %5) #0 {
  %7 = alloca double, align 8
  %8 = alloca double, align 8
  %9 = alloca i32, align 4
  %10 = alloca ptr, align 8
  %11 = alloca ptr, align 8
  %12 = alloca ptr, align 8
  %13 = alloca i32, align 4
  %14 = alloca i64, align 8
  %15 = alloca i64, align 8
  %16 = alloca i32, align 4
  store double %0, ptr %7, align 8
  store double %1, ptr %8, align 8
  store i32 %2, ptr %9, align 4
  store ptr %3, ptr %10, align 8
  store ptr %4, ptr %11, align 8
  store ptr %5, ptr %12, align 8
  call void @llvm.lifetime.start.p0(i64 4, ptr %13) #9
  call void @llvm.lifetime.start.p0(i64 8, ptr %14) #9
  call void @llvm.lifetime.start.p0(i64 8, ptr %15) #9
  %17 = call i64 @get_hash_memory_limit()
  store i64 %17, ptr %15, align 8
  %18 = load double, ptr %8, align 8
  %19 = load double, ptr %7, align 8
  %20 = fmul double %18, %19
  %21 = load i64, ptr %15, align 8
  %22 = uitofp i64 %21 to double
  %23 = fcmp ole double %20, %22
  br i1 %23, label %24, label %38

24:                                               ; preds = %6
  %25 = load ptr, ptr %12, align 8
  %26 = icmp ne ptr %25, null
  br i1 %26, label %27, label %29

27:                                               ; preds = %24
  %28 = load ptr, ptr %12, align 8
  store i32 0, ptr %28, align 4
  br label %29

29:                                               ; preds = %27, %24
  %30 = load i64, ptr %15, align 8
  %31 = load ptr, ptr %10, align 8
  store i64 %30, ptr %31, align 8
  %32 = load i64, ptr %15, align 8
  %33 = uitofp i64 %32 to double
  %34 = load double, ptr %7, align 8
  %35 = fdiv double %33, %34
  %36 = fptoui double %35 to i64
  %37 = load ptr, ptr %11, align 8
  store i64 %36, ptr %37, align 8
  store i32 1, ptr %16, align 4
  br label %85

38:                                               ; preds = %6
  %39 = load double, ptr %8, align 8
  %40 = load double, ptr %7, align 8
  %41 = load i32, ptr %9, align 4
  %42 = call i32 @hash_choose_num_partitions(double noundef %39, double noundef %40, i32 noundef %41, ptr noundef null)
  store i32 %42, ptr %13, align 4
  %43 = load ptr, ptr %12, align 8
  %44 = icmp ne ptr %43, null
  br i1 %44, label %45, label %48

45:                                               ; preds = %38
  %46 = load i32, ptr %13, align 4
  %47 = load ptr, ptr %12, align 8
  store i32 %46, ptr %47, align 4
  br label %48

48:                                               ; preds = %45, %38
  %49 = load i32, ptr %13, align 4
  %50 = mul i32 8192, %49
  %51 = add i32 8192, %50
  %52 = sext i32 %51 to i64
  store i64 %52, ptr %14, align 8
  %53 = load i64, ptr %15, align 8
  %54 = load i64, ptr %14, align 8
  %55 = mul i64 4, %54
  %56 = icmp ugt i64 %53, %55
  br i1 %56, label %57, label %62

57:                                               ; preds = %48
  %58 = load i64, ptr %15, align 8
  %59 = load i64, ptr %14, align 8
  %60 = sub i64 %58, %59
  %61 = load ptr, ptr %10, align 8
  store i64 %60, ptr %61, align 8
  br label %68

62:                                               ; preds = %48
  %63 = load i64, ptr %15, align 8
  %64 = uitofp i64 %63 to double
  %65 = fmul double %64, 7.500000e-01
  %66 = fptoui double %65 to i64
  %67 = load ptr, ptr %10, align 8
  store i64 %66, ptr %67, align 8
  br label %68

68:                                               ; preds = %62, %57
  %69 = load ptr, ptr %10, align 8
  %70 = load i64, ptr %69, align 8
  %71 = uitofp i64 %70 to double
  %72 = load double, ptr %7, align 8
  %73 = fcmp ogt double %71, %72
  br i1 %73, label %74, label %82

74:                                               ; preds = %68
  %75 = load ptr, ptr %10, align 8
  %76 = load i64, ptr %75, align 8
  %77 = uitofp i64 %76 to double
  %78 = load double, ptr %7, align 8
  %79 = fdiv double %77, %78
  %80 = fptoui double %79 to i64
  %81 = load ptr, ptr %11, align 8
  store i64 %80, ptr %81, align 8
  br label %84

82:                                               ; preds = %68
  %83 = load ptr, ptr %11, align 8
  store i64 1, ptr %83, align 8
  br label %84

84:                                               ; preds = %82, %74
  store i32 0, ptr %16, align 4
  br label %85

85:                                               ; preds = %84, %29
  call void @llvm.lifetime.end.p0(i64 8, ptr %15) #9
  call void @llvm.lifetime.end.p0(i64 8, ptr %14) #9
  call void @llvm.lifetime.end.p0(i64 4, ptr %13) #9
  %86 = load i32, ptr %16, align 4
  switch i32 %86, label %88 [
    i32 0, label %87
    i32 1, label %87
  ]

87:                                               ; preds = %85, %85
  ret void

88:                                               ; preds = %85
  unreachable
}