; Function Attrs: nounwind uwtable
define dso_local void @hash_agg_set_limits(double noundef %0, double noundef %1, i32 noundef %2, ptr noundef writeonly captures(none) initializes((0, 8)) %3, ptr noundef writeonly captures(none) initializes((0, 8)) %4, ptr noundef writeonly captures(address_is_null) %5) local_unnamed_addr #2 {
  %7 = tail call i64 @get_hash_memory_limit() #12
  %8 = fmul double %0, %1
  %9 = uitofp i64 %7 to double
  %10 = fcmp ugt double %8, %9
  br i1 %10, label %16, label %11

11:                                               ; preds = %6
  %.not36 = icmp eq ptr %5, null
  br i1 %.not36, label %13, label %12

12:                                               ; preds = %11
  store i32 0, ptr %5, align 4
  br label %13

13:                                               ; preds = %12, %11
  store i64 %7, ptr %3, align 8
  %14 = fdiv double %9, %0
  %15 = fptoui double %14 to i64
  br label %49

16:                                               ; preds = %6
  %17 = tail call i64 @get_hash_memory_limit() #12
  %18 = uitofp i64 %17 to double
  %19 = tail call double @llvm.fmuladd.f64(double %18, double 2.500000e-01, double -8.192000e+03)
  %20 = fmul double %19, 0x3F20000000000000
  %21 = fmul double %1, 1.500000e+00
  %22 = fmul double %0, %21
  %23 = fdiv double %22, %18
  %24 = fadd double %23, 1.000000e+00
  %25 = fcmp ogt double %24, %20
  %.019.i = select i1 %25, double %20, double %24
  %26 = fcmp olt double %.019.i, 4.000000e+00
  %.1.i = select i1 %26, double 4.000000e+00, double %.019.i
  %27 = fcmp ogt double %.1.i, 1.024000e+03
  %.2.i = select i1 %27, double 1.024000e+03, double %.1.i
  %28 = fptosi double %.2.i to i32
  %29 = sext i32 %28 to i64
  %30 = tail call i32 @my_log2(i64 noundef %29) #12
  %31 = add i32 %30, %2
  %32 = icmp sgt i32 %31, 31
  %33 = sub i32 32, %2
  %.0.i = select i1 %32, i32 %33, i32 %30
  %.not = icmp eq ptr %5, null
  br i1 %.not, label %36, label %34

34:                                               ; preds = %16
  %35 = shl nuw i32 1, %.0.i
  store i32 %35, ptr %5, align 4
  br label %36

36:                                               ; preds = %34, %16
  %37 = shl i32 8192, %.0.i
  %38 = add nuw i32 %37, 8192
  %39 = sext i32 %38 to i64
  %40 = shl nsw i64 %39, 2
  %41 = icmp ugt i64 %7, %40
  %42 = fmul double %9, 7.500000e-01
  %43 = fptoui double %42 to i64
  %44 = sub i64 %7, %39
  %storemerge = select i1 %41, i64 %44, i64 %43
  store i64 %storemerge, ptr %3, align 8
  %45 = uitofp i64 %storemerge to double
  %46 = fcmp olt double %0, %45
  %47 = fdiv double %45, %0
  %48 = fptoui double %47 to i64
  %storemerge34 = select i1 %46, i64 %48, i64 1
  br label %49

49:                                               ; preds = %36, %13
  %storemerge35 = phi i64 [ %storemerge34, %36 ], [ %15, %13 ]
  store i64 %storemerge35, ptr %4, align 8
  ret void
}